target datalayout = "e-m:e-p270:32:32-p271:32:32-p272:64:64-i64:64-i128:128-f80:128-n8:16:32:64-S128"
target triple = "x86_64-pc-linux-gnu"

; Function Attrs: nounwind uwtable
define internal double @m_log2(double noundef %0) #0 {
  %2 = alloca double, align 8
  %3 = alloca double, align 8
  store double %0, ptr %3, align 8, !tbaa !13
  %4 = load double, ptr %3, align 8, !tbaa !13
  %5 = call i1 @llvm.is.fpclass.f64(double %4, i32 504)
  br i1 %5, label %18, label %6

6:                                                ; preds = %1
  %7 = load double, ptr %3, align 8, !tbaa !13
  %8 = call i1 @llvm.is.fpclass.f64(double %7, i32 3)
  br i1 %8, label %9, label %11

9:                                                ; preds = %6
  %10 = load double, ptr %3, align 8, !tbaa !13
  store double %10, ptr %2, align 8
  br label %31

11:                                               ; preds = %6
  %12 = load double, ptr %3, align 8, !tbaa !13
  %13 = fcmp ogt double %12, 0.000000e+00
  br i1 %13, label %14, label %16

14:                                               ; preds = %11
  %15 = load double, ptr %3, align 8, !tbaa !13
  store double %15, ptr %2, align 8
  br label %31

16:                                               ; preds = %11
  %17 = call ptr @__errno_location() #12
  store i32 33, ptr %17, align 4, !tbaa !17
  store double 0x7FF8000000000000, ptr %2, align 8
  br label %31

18:                                               ; preds = %1
  %19 = load double, ptr %3, align 8, !tbaa !13
  %20 = fcmp ogt double %19, 0.000000e+00
  br i1 %20, label %21, label %24

21:                                               ; preds = %18
  %22 = load double, ptr %3, align 8, !tbaa !13
  %23 = call double @log2(double noundef %22) #10, !tbaa !17
  store double %23, ptr %2, align 8
  br label %31

24:                                               ; preds = %18
  %25 = load double, ptr %3, align 8, !tbaa !13
  %26 = fcmp oeq double %25, 0.000000e+00
  br i1 %26, label %27, label %29

27:                                               ; preds = %24
  %28 = call ptr @__errno_location() #12
  store i32 33, ptr %28, align 4, !tbaa !17
  store double 0xFFF0000000000000, ptr %2, align 8
  br label %31

29:                                               ; preds = %24
  %30 = call ptr @__errno_location() #12
  store i32 33, ptr %30, align 4, !tbaa !17
  store double 0x7FF8000000000000, ptr %2, align 8
  br label %31

31:                                               ; preds = %29, %27, %21, %16, %14, %9
  %32 = load double, ptr %2, align 8
  ret double %32
}