; Function Attrs: mustprogress nofree nosync nounwind willreturn memory(write, inaccessiblemem: none) uwtable
define internal noundef double @m_log2(double noundef %0) #14 {
  %2 = tail call double @llvm.fabs.f64(double %0)
  %3 = fcmp ueq double %2, 0x7FF0000000000000
  br i1 %3, label %4, label %7

4:                                                ; preds = %1
  %or.cond = fcmp ugt double %0, 0.000000e+00
  br i1 %or.cond, label %14, label %5

5:                                                ; preds = %4
  %6 = tail call ptr @__errno_location() #17
  store i32 33, ptr %6, align 4, !tbaa !14
  br label %14

7:                                                ; preds = %1
  %8 = fcmp ogt double %0, 0.000000e+00
  br i1 %8, label %9, label %11

9:                                                ; preds = %7
  %10 = tail call double @llvm.log2.f64(double %0), !tbaa !14
  br label %14

11:                                               ; preds = %7
  %12 = fcmp oeq double %0, 0.000000e+00
  %13 = tail call ptr @__errno_location() #17
  store i32 33, ptr %13, align 4, !tbaa !14
  %. = select i1 %12, double 0xFFF0000000000000, double 0x7FF8000000000000
  br label %14

14:                                               ; preds = %11, %4, %9, %5
  %.0 = phi double [ %10, %9 ], [ 0x7FF8000000000000, %5 ], [ %0, %4 ], [ %., %11 ]
  ret double %.0
}